target datalayout = "e-m:e-p270:32:32-p271:32:32-p272:64:64-i64:64-i128:128-f80:128-n8:16:32:64-S128"
target triple = "x86_64-pc-linux-gnu"

%struct.sparse_checkout_init_opts = type { i32, i32 }
%struct.hashmap = type { ptr, ptr, ptr, i32, i32, i32, i32, i8 }
%struct.pattern_list = type { i32, i32, ptr, ptr, i32, i32, %struct.hashmap, %struct.hashmap }
%struct.object_id = type { [32 x i8], i32 }

@the_repository = external global ptr, align 8
@.str.8 = private unnamed_addr constant [1 x i8] zeroinitializer, align 1
@init_opts = internal global %struct.sparse_checkout_init_opts zeroinitializer, align 4
@builtin_sparse_checkout_init_usage = internal constant [2 x ptr] [ptr @.str.26, ptr null], align 16
@.str.19 = private unnamed_addr constant [5 x i8] c"HEAD\00", align 1
@.str.20 = private unnamed_addr constant [43 x i8] c"unable to create leading directories of %s\00", align 1
@.str.21 = private unnamed_addr constant [2 x i8] c"w\00", align 1
@.str.22 = private unnamed_addr constant [20 x i8] c"failed to open '%s'\00", align 1
@.str.23 = private unnamed_addr constant [9 x i8] c"/*\0A!/*/\0A\00", align 1
@.str.24 = private unnamed_addr constant [3 x i8] c"/*\00", align 1
@empty_base = internal global ptr @.str.8, align 8
@.str.25 = private unnamed_addr constant [5 x i8] c"!/*/\00", align 1

; Function Attrs: nounwind uwtable
define internal i32 @sparse_checkout_init(i32 noundef %0, ptr noundef %1, ptr noundef %2, ptr noundef %3) #0 {
  %5 = alloca i32, align 4
  %6 = alloca i32, align 4
  %7 = alloca ptr, align 8
  %8 = alloca ptr, align 8
  %9 = alloca ptr, align 8
  %10 = alloca %struct.pattern_list, align 8
  %11 = alloca ptr, align 8
  %12 = alloca i32, align 4
  %13 = alloca %struct.object_id, align 4
  %14 = alloca i32, align 4
  %15 = alloca ptr, align 8
  store i32 %0, ptr %6, align 4, !tbaa !4
  store ptr %1, ptr %7, align 8, !tbaa !8
  store ptr %2, ptr %8, align 8, !tbaa !11
  store ptr %3, ptr %9, align 8, !tbaa !13
  call void @llvm.lifetime.start.p0(i64 128, ptr %10) #9
  call void @llvm.lifetime.start.p0(i64 8, ptr %11) #9
  call void @llvm.lifetime.start.p0(i64 4, ptr %12) #9
  call void @llvm.lifetime.start.p0(i64 36, ptr %13) #9
  call void @setup_work_tree()
  %16 = load ptr, ptr @the_repository, align 8, !tbaa !13
  %17 = call i32 @repo_read_index(ptr noundef %16)
  store i32 -1, ptr @init_opts, align 4, !tbaa !68
  store i32 -1, ptr getelementptr inbounds nuw (%struct.sparse_checkout_init_opts, ptr @init_opts, i32 0, i32 1), align 4, !tbaa !70
  %18 = load i32, ptr %6, align 4, !tbaa !4
  %19 = load ptr, ptr %7, align 8, !tbaa !8
  %20 = load ptr, ptr %8, align 8, !tbaa !11
  %21 = call i32 @parse_options(i32 noundef %18, ptr noundef %19, ptr noundef %20, ptr noundef @sparse_checkout_init.builtin_sparse_checkout_init_options, ptr noundef @builtin_sparse_checkout_init_usage, i32 noundef 0)
  store i32 %21, ptr %6, align 4, !tbaa !4
  %22 = call i32 @update_modes(ptr noundef @init_opts, ptr noundef getelementptr inbounds nuw (%struct.sparse_checkout_init_opts, ptr @init_opts, i32 0, i32 1))
  %23 = icmp ne i32 %22, 0
  br i1 %23, label %24, label %25

24:                                               ; preds = %4
  store i32 1, ptr %5, align 4
  store i32 1, ptr %14, align 4
  br label %66

25:                                               ; preds = %4
  call void @llvm.memset.p0.i64(ptr align 8 %10, i8 0, i64 128, i1 false)
  %26 = call ptr @get_sparse_checkout_filename()
  store ptr %26, ptr %11, align 8, !tbaa !11
  %27 = load ptr, ptr %11, align 8, !tbaa !11
  %28 = call i32 @add_patterns_from_file_to_list(ptr noundef %27, ptr noundef @.str.8, i32 noundef 0, ptr noundef %10, ptr noundef null, i32 noundef 0)
  store i32 %28, ptr %12, align 4, !tbaa !4
  %29 = load i32, ptr %12, align 4, !tbaa !4
  %30 = icmp sge i32 %29, 0
  br i1 %30, label %31, label %34

31:                                               ; preds = %25
  %32 = load ptr, ptr %11, align 8, !tbaa !11
  call void @free(ptr noundef %32) #9
  call void @clear_pattern_list(ptr noundef %10)
  %33 = call i32 @update_working_directory(ptr noundef null)
  store i32 %33, ptr %5, align 4
  store i32 1, ptr %14, align 4
  br label %66

34:                                               ; preds = %25
  %35 = load ptr, ptr @the_repository, align 8, !tbaa !13
  %36 = call i32 @repo_get_oid(ptr noundef %35, ptr noundef @.str.19, ptr noundef %13)
  %37 = icmp ne i32 %36, 0
  br i1 %37, label %38, label %59

38:                                               ; preds = %34
  call void @llvm.lifetime.start.p0(i64 8, ptr %15) #9
  %39 = load ptr, ptr %11, align 8, !tbaa !11
  %40 = call i32 @safe_create_leading_directories(ptr noundef %39)
  %41 = icmp ne i32 %40, 0
  br i1 %41, label %42, label %45

42:                                               ; preds = %38
  %43 = call ptr @_(ptr noundef @.str.20)
  %44 = load ptr, ptr %11, align 8, !tbaa !11
  call void (ptr, ...) @die(ptr noundef %43, ptr noundef %44) #10
  unreachable

45:                                               ; preds = %38
  %46 = load ptr, ptr %11, align 8, !tbaa !11
  %47 = call ptr @xfopen(ptr noundef %46, ptr noundef @.str.21)
  store ptr %47, ptr %15, align 8, !tbaa !65
  %48 = load ptr, ptr %15, align 8, !tbaa !65
  %49 = icmp ne ptr %48, null
  br i1 %49, label %53, label %50

50:                                               ; preds = %45
  %51 = call ptr @_(ptr noundef @.str.22)
  %52 = load ptr, ptr %11, align 8, !tbaa !11
  call void (ptr, ...) @die(ptr noundef %51, ptr noundef %52) #10
  unreachable

53:                                               ; preds = %45
  %54 = load ptr, ptr %11, align 8, !tbaa !11
  call void @free(ptr noundef %54) #9
  %55 = load ptr, ptr %15, align 8, !tbaa !65
  %56 = call i32 (ptr, ptr, ...) @fprintf(ptr noundef %55, ptr noundef @.str.23) #9
  %57 = load ptr, ptr %15, align 8, !tbaa !65
  %58 = call i32 @fclose(ptr noundef %57)
  store i32 0, ptr %5, align 4
  store i32 1, ptr %14, align 4
  call void @llvm.lifetime.end.p0(i64 8, ptr %15) #9
  br label %66

59:                                               ; preds = %34
  %60 = load ptr, ptr %11, align 8, !tbaa !11
  call void @free(ptr noundef %60) #9
  %61 = load ptr, ptr @empty_base, align 8, !tbaa !11
  call void @add_pattern(ptr noundef @.str.24, ptr noundef %61, i32 noundef 0, ptr noundef %10, i32 noundef 0)
  %62 = load ptr, ptr @empty_base, align 8, !tbaa !11
  call void @add_pattern(ptr noundef @.str.25, ptr noundef %62, i32 noundef 0, ptr noundef %10, i32 noundef 0)
  %63 = load i32, ptr @init_opts, align 4, !tbaa !68
  %64 = getelementptr inbounds nuw %struct.pattern_list, ptr %10, i32 0, i32 4
  store i32 %63, ptr %64, align 8, !tbaa !48
  %65 = call i32 @write_patterns_and_update(ptr noundef %10)
  store i32 %65, ptr %5, align 4
  store i32 1, ptr %14, align 4
  br label %66

66:                                               ; preds = %59, %53, %31, %24
  call void @llvm.lifetime.end.p0(i64 36, ptr %13) #9
  call void @llvm.lifetime.end.p0(i64 4, ptr %12) #9
  call void @llvm.lifetime.end.p0(i64 8, ptr %11) #9
  call void @llvm.lifetime.end.p0(i64 128, ptr %10) #9
  %67 = load i32, ptr %5, align 4
  ret i32 %67
}