; Function Attrs: nounwind uwtable
define internal i32 @sparse_checkout_init(i32 noundef %0, ptr noundef %1, ptr noundef %2, ptr readnone captures(none) %3) #0 {
  %5 = alloca %struct.pattern_list, align 8
  %6 = alloca %struct.object_id, align 4
  call void @llvm.lifetime.start.p0(i64 128, ptr nonnull %5) #13
  call void @llvm.lifetime.start.p0(i64 36, ptr nonnull %6) #13
  tail call void @setup_work_tree() #13
  %7 = load ptr, ptr @the_repository, align 8, !tbaa !17
  %8 = tail call i32 @repo_read_index(ptr noundef %7) #13
  store i32 -1, ptr @init_opts, align 4, !tbaa !61
  store i32 -1, ptr getelementptr inbounds nuw (i8, ptr @init_opts, i64 4), align 4, !tbaa !63
  %9 = tail call i32 @parse_options(i32 noundef %0, ptr noundef %1, ptr noundef %2, ptr noundef nonnull @sparse_checkout_init.builtin_sparse_checkout_init_options, ptr noundef nonnull @builtin_sparse_checkout_init_usage, i32 noundef 0) #13
  %10 = tail call fastcc i32 @update_modes(ptr noundef nonnull @init_opts, ptr noundef nonnull getelementptr inbounds nuw (i8, ptr @init_opts, i64 4))
  %.not = icmp eq i32 %10, 0
  br i1 %.not, label %11, label %35

11:                                               ; preds = %4
  call void @llvm.memset.p0.i64(ptr noundef nonnull align 8 dereferenceable(128) %5, i8 0, i64 128, i1 false)
  %12 = tail call ptr @get_sparse_checkout_filename() #13
  %13 = call i32 @add_patterns_from_file_to_list(ptr noundef %12, ptr noundef nonnull @.str.8, i32 noundef 0, ptr noundef nonnull %5, ptr noundef null, i32 noundef 0) #13
  %14 = icmp sgt i32 %13, -1
  br i1 %14, label %15, label %17

15:                                               ; preds = %11
  call void @free(ptr noundef %12) #13
  call void @clear_pattern_list(ptr noundef nonnull %5) #13
  %16 = call fastcc i32 @update_working_directory(ptr noundef null)
  br label %35

17:                                               ; preds = %11
  %18 = load ptr, ptr @the_repository, align 8, !tbaa !17
  %19 = call i32 @repo_get_oid(ptr noundef %18, ptr noundef nonnull @.str.19, ptr noundef nonnull %6) #13
  %.not16 = icmp eq i32 %19, 0
  br i1 %.not16, label %31, label %20

20:                                               ; preds = %17
  %21 = call i32 @safe_create_leading_directories(ptr noundef %12) #13
  %.not17 = icmp eq i32 %21, 0
  br i1 %.not17, label %24, label %22

22:                                               ; preds = %20
  %23 = call fastcc ptr @_(ptr noundef nonnull @.str.20)
  call void (ptr, ...) @die(ptr noundef %23, ptr noundef %12) #14
  unreachable

24:                                               ; preds = %20
  %25 = call ptr @xfopen(ptr noundef %12, ptr noundef nonnull @.str.21) #13
  %.not18 = icmp eq ptr %25, null
  br i1 %.not18, label %26, label %28

26:                                               ; preds = %24
  %27 = call fastcc ptr @_(ptr noundef nonnull @.str.22)
  call void (ptr, ...) @die(ptr noundef %27, ptr noundef %12) #14
  unreachable

28:                                               ; preds = %24
  call void @free(ptr noundef %12) #13
  %29 = call i64 @fwrite(ptr nonnull @.str.23, i64 8, i64 1, ptr nonnull %25)
  %30 = call i32 @fclose(ptr noundef nonnull %25)
  br label %35

31:                                               ; preds = %17
  call void @free(ptr noundef %12) #13
  call void @add_pattern(ptr noundef nonnull @.str.24, ptr noundef nonnull @.str.8, i32 noundef 0, ptr noundef nonnull %5, i32 noundef 0) #13
  call void @add_pattern(ptr noundef nonnull @.str.25, ptr noundef nonnull @.str.8, i32 noundef 0, ptr noundef nonnull %5, i32 noundef 0) #13
  %32 = load i32, ptr @init_opts, align 4, !tbaa !61
  %33 = getelementptr inbounds nuw i8, ptr %5, i64 24
  store i32 %32, ptr %33, align 8, !tbaa !38
  %34 = call fastcc i32 @write_patterns_and_update(ptr noundef nonnull %5)
  br label %35

35:                                               ; preds = %4, %31, %28, %15
  %.0 = phi i32 [ %16, %15 ], [ 0, %28 ], [ %34, %31 ], [ 1, %4 ]
  call void @llvm.lifetime.end.p0(i64 36, ptr nonnull %6) #13
  call void @llvm.lifetime.end.p0(i64 128, ptr nonnull %5) #13
  ret i32 %.0
}